target datalayout = "e-m:e-p270:32:32-p271:32:32-p272:64:64-i64:64-i128:128-f80:128-n8:16:32:64-S128"
target triple = "x86_64-pc-linux-gnu"

%struct.buf_mem_st = type { i64, ptr, i64, i64 }

@.str = private unnamed_addr constant [46 x i8] c"../openssl/crypto/encode_decode/encoder_lib.c\00", align 1
@__func__.OSSL_ENCODER_to_data = private unnamed_addr constant [21 x i8] c"OSSL_ENCODER_to_data\00", align 1

; Function Attrs: nounwind uwtable
define i32 @OSSL_ENCODER_to_data(ptr noundef %0, ptr noundef %1, ptr noundef %2) #0 {
  %4 = alloca i32, align 4
  %5 = alloca ptr, align 8
  %6 = alloca ptr, align 8
  %7 = alloca ptr, align 8
  %8 = alloca ptr, align 8
  %9 = alloca ptr, align 8
  %10 = alloca i32, align 4
  %11 = alloca i32, align 4
  store ptr %0, ptr %5, align 8, !tbaa !3
  store ptr %1, ptr %6, align 8, !tbaa !65
  store ptr %2, ptr %7, align 8, !tbaa !67
  call void @llvm.lifetime.start.p0(i64 8, ptr %8) #8
  call void @llvm.lifetime.start.p0(i64 8, ptr %9) #8
  store ptr null, ptr %9, align 8, !tbaa !58
  call void @llvm.lifetime.start.p0(i64 4, ptr %10) #8
  store i32 0, ptr %10, align 4, !tbaa !32
  %12 = load ptr, ptr %7, align 8, !tbaa !67
  %13 = icmp eq ptr %12, null
  br i1 %13, label %14, label %15

14:                                               ; preds = %3
  call void @ERR_new()
  call void @ERR_set_debug(ptr noundef @.str, i32 noundef 127, ptr noundef @__func__.OSSL_ENCODER_to_data)
  call void (i32, i32, ptr, ...) @ERR_set_error(i32 noundef 59, i32 noundef 786690, ptr noundef null)
  store i32 0, ptr %4, align 4
  store i32 1, ptr %11, align 4
  br label %96

15:                                               ; preds = %3
  %16 = call ptr @BIO_s_mem()
  %17 = call ptr @BIO_new(ptr noundef %16)
  store ptr %17, ptr %8, align 8, !tbaa !8
  %18 = load ptr, ptr %8, align 8, !tbaa !8
  %19 = icmp ne ptr %18, null
  br i1 %19, label %20, label %92

20:                                               ; preds = %15
  %21 = load ptr, ptr %5, align 8, !tbaa !3
  %22 = load ptr, ptr %8, align 8, !tbaa !8
  %23 = call i32 @OSSL_ENCODER_to_bio(ptr noundef %21, ptr noundef %22)
  %24 = icmp ne i32 %23, 0
  br i1 %24, label %25, label %92

25:                                               ; preds = %20
  %26 = load ptr, ptr %8, align 8, !tbaa !8
  %27 = call i64 @BIO_ctrl(ptr noundef %26, i32 noundef 115, i64 noundef 0, ptr noundef %9)
  %28 = icmp sgt i64 %27, 0
  br i1 %28, label %29, label %92

29:                                               ; preds = %25
  store i32 1, ptr %10, align 4, !tbaa !32
  %30 = load ptr, ptr %6, align 8, !tbaa !65
  %31 = icmp ne ptr %30, null
  br i1 %31, label %32, label %52

32:                                               ; preds = %29
  %33 = load ptr, ptr %6, align 8, !tbaa !65
  %34 = load ptr, ptr %33, align 8, !tbaa !36
  %35 = icmp ne ptr %34, null
  br i1 %35, label %36, label %52

36:                                               ; preds = %32
  %37 = load ptr, ptr %7, align 8, !tbaa !67
  %38 = load i64, ptr %37, align 8, !tbaa !47
  %39 = load ptr, ptr %9, align 8, !tbaa !58
  %40 = getelementptr inbounds nuw %struct.buf_mem_st, ptr %39, i32 0, i32 0
  %41 = load i64, ptr %40, align 8, !tbaa !62
  %42 = icmp ult i64 %38, %41
  br i1 %42, label %43, label %44

43:                                               ; preds = %36
  store i32 0, ptr %10, align 4, !tbaa !32
  br label %51

44:                                               ; preds = %36
  %45 = load ptr, ptr %9, align 8, !tbaa !58
  %46 = getelementptr inbounds nuw %struct.buf_mem_st, ptr %45, i32 0, i32 0
  %47 = load i64, ptr %46, align 8, !tbaa !62
  %48 = load ptr, ptr %7, align 8, !tbaa !67
  %49 = load i64, ptr %48, align 8, !tbaa !47
  %50 = sub i64 %49, %47
  store i64 %50, ptr %48, align 8, !tbaa !47
  br label %51

51:                                               ; preds = %44, %43
  br label %57

52:                                               ; preds = %32, %29
  %53 = load ptr, ptr %9, align 8, !tbaa !58
  %54 = getelementptr inbounds nuw %struct.buf_mem_st, ptr %53, i32 0, i32 0
  %55 = load i64, ptr %54, align 8, !tbaa !62
  %56 = load ptr, ptr %7, align 8, !tbaa !67
  store i64 %55, ptr %56, align 8, !tbaa !47
  br label %57

57:                                               ; preds = %52, %51
  %58 = load i32, ptr %10, align 4, !tbaa !32
  %59 = icmp ne i32 %58, 0
  br i1 %59, label %60, label %91

60:                                               ; preds = %57
  %61 = load ptr, ptr %6, align 8, !tbaa !65
  %62 = icmp ne ptr %61, null
  br i1 %62, label %63, label %90

63:                                               ; preds = %60
  %64 = load ptr, ptr %6, align 8, !tbaa !65
  %65 = load ptr, ptr %64, align 8, !tbaa !36
  %66 = icmp ne ptr %65, null
  br i1 %66, label %67, label %82

67:                                               ; preds = %63
  %68 = load ptr, ptr %6, align 8, !tbaa !65
  %69 = load ptr, ptr %68, align 8, !tbaa !36
  %70 = load ptr, ptr %9, align 8, !tbaa !58
  %71 = getelementptr inbounds nuw %struct.buf_mem_st, ptr %70, i32 0, i32 1
  %72 = load ptr, ptr %71, align 8, !tbaa !60
  %73 = load ptr, ptr %9, align 8, !tbaa !58
  %74 = getelementptr inbounds nuw %struct.buf_mem_st, ptr %73, i32 0, i32 0
  %75 = load i64, ptr %74, align 8, !tbaa !62
  call void @llvm.memcpy.p0.p0.i64(ptr align 1 %69, ptr align 1 %72, i64 %75, i1 false)
  %76 = load ptr, ptr %9, align 8, !tbaa !58
  %77 = getelementptr inbounds nuw %struct.buf_mem_st, ptr %76, i32 0, i32 0
  %78 = load i64, ptr %77, align 8, !tbaa !62
  %79 = load ptr, ptr %6, align 8, !tbaa !65
  %80 = load ptr, ptr %79, align 8, !tbaa !36
  %81 = getelementptr inbounds nuw i8, ptr %80, i64 %78
  store ptr %81, ptr %79, align 8, !tbaa !36
  br label %89

82:                                               ; preds = %63
  %83 = load ptr, ptr %9, align 8, !tbaa !58
  %84 = getelementptr inbounds nuw %struct.buf_mem_st, ptr %83, i32 0, i32 1
  %85 = load ptr, ptr %84, align 8, !tbaa !60
  %86 = load ptr, ptr %6, align 8, !tbaa !65
  store ptr %85, ptr %86, align 8, !tbaa !36
  %87 = load ptr, ptr %9, align 8, !tbaa !58
  %88 = getelementptr inbounds nuw %struct.buf_mem_st, ptr %87, i32 0, i32 1
  store ptr null, ptr %88, align 8, !tbaa !60
  br label %89

89:                                               ; preds = %82, %67
  br label %90

90:                                               ; preds = %89, %60
  br label %91

91:                                               ; preds = %90, %57
  br label %92

92:                                               ; preds = %91, %25, %20, %15
  %93 = load ptr, ptr %8, align 8, !tbaa !8
  %94 = call i32 @BIO_free(ptr noundef %93)
  %95 = load i32, ptr %10, align 4, !tbaa !32
  store i32 %95, ptr %4, align 4
  store i32 1, ptr %11, align 4
  br label %96

96:                                               ; preds = %92, %14
  call void @llvm.lifetime.end.p0(i64 4, ptr %10) #8
  call void @llvm.lifetime.end.p0(i64 8, ptr %9) #8
  call void @llvm.lifetime.end.p0(i64 8, ptr %8) #8
  %97 = load i32, ptr %4, align 4
  ret i32 %97
}